; Function Attrs: mustprogress nounwind uwtable
define hidden void @_ZNK5clang7targets20WindowsARMTargetInfo22getVisualStudioDefinesERKNS_11LangOptionsERNS_12MacroBuilderE(ptr noundef nonnull align 8 dereferenceable(680) %0, ptr nocapture nonnull readnone align 8 %1, ptr noundef nonnull align 8 dereferenceable(8) %2) local_unnamed_addr #0 align 2 {
  %4 = alloca %"class.llvm::Twine", align 8
  %5 = alloca %"class.llvm::Twine", align 8
  %6 = alloca %"class.llvm::Twine", align 8
  %7 = alloca %"class.llvm::Twine", align 8
  %8 = alloca %"class.llvm::Twine", align 8
  %9 = alloca %"class.llvm::Twine", align 8
  %10 = alloca %"class.llvm::Twine", align 8
  %11 = alloca %"class.llvm::Twine", align 8
  %12 = alloca %"class.llvm::Twine", align 8
  %13 = alloca %"class.llvm::Twine", align 8
  %14 = getelementptr inbounds nuw i8, ptr %4, i64 32
  %15 = getelementptr inbounds nuw i8, ptr %4, i64 33
  store i8 1, ptr %15, align 1
  store ptr @.str.318, ptr %4, align 8
  store i8 3, ptr %14, align 8
  %16 = getelementptr inbounds nuw i8, ptr %5, i64 32
  %17 = getelementptr inbounds nuw i8, ptr %5, i64 33
  store i8 1, ptr %17, align 1
  store ptr @.str.116, ptr %5, align 8
  store i8 3, ptr %16, align 8
  call void @_ZN5clang12MacroBuilder11defineMacroERKN4llvm5TwineES4_(ptr noundef nonnull align 8 dereferenceable(8) %2, ptr noundef nonnull align 8 dereferenceable(34) %4, ptr noundef nonnull align 8 dereferenceable(34) %5)
  %18 = getelementptr inbounds nuw i8, ptr %6, i64 32
  %19 = getelementptr inbounds nuw i8, ptr %6, i64 33
  store i8 1, ptr %19, align 1
  store ptr @.str.319, ptr %6, align 8
  store i8 3, ptr %18, align 8
  %20 = getelementptr inbounds nuw i8, ptr %7, i64 32
  %21 = getelementptr inbounds nuw i8, ptr %7, i64 33
  store i8 1, ptr %21, align 1
  store ptr @.str.320, ptr %7, align 8
  store i8 3, ptr %20, align 8
  call void @_ZN5clang12MacroBuilder11defineMacroERKN4llvm5TwineES4_(ptr noundef nonnull align 8 dereferenceable(8) %2, ptr noundef nonnull align 8 dereferenceable(34) %6, ptr noundef nonnull align 8 dereferenceable(34) %7)
  %22 = getelementptr inbounds nuw i8, ptr %8, i64 32
  %23 = getelementptr inbounds nuw i8, ptr %8, i64 33
  store i8 1, ptr %23, align 1
  store ptr @.str.321, ptr %8, align 8
  store i8 3, ptr %22, align 8
  %24 = getelementptr inbounds nuw i8, ptr %9, i64 32
  %25 = getelementptr inbounds nuw i8, ptr %9, i64 33
  store i8 1, ptr %25, align 1
  store ptr @.str.320, ptr %9, align 8
  store i8 3, ptr %24, align 8
  call void @_ZN5clang12MacroBuilder11defineMacroERKN4llvm5TwineES4_(ptr noundef nonnull align 8 dereferenceable(8) %2, ptr noundef nonnull align 8 dereferenceable(34) %8, ptr noundef nonnull align 8 dereferenceable(34) %9)
  %26 = getelementptr inbounds nuw i8, ptr %0, i64 624
  %27 = getelementptr inbounds i8, ptr %0, i64 656
  %28 = load i32, ptr %27, align 8
  %29 = icmp eq i32 %28, 1
  %30 = select i1 %29, i64 4, i64 6
  %31 = getelementptr inbounds nuw i8, ptr %10, i64 32
  %32 = getelementptr inbounds nuw i8, ptr %10, i64 33
  store i8 1, ptr %32, align 1
  store ptr @.str.320, ptr %10, align 8
  store i8 3, ptr %31, align 8
  %33 = call { ptr, i64 } @_ZNK4llvm6Triple11getArchNameEv(ptr noundef nonnull align 8 dereferenceable(56) %26) #24
  %34 = extractvalue { ptr, i64 } %33, 0
  %35 = extractvalue { ptr, i64 } %33, 1
  %.sroa.speculated5.i = call i64 @llvm.umin.i64(i64 %35, i64 %30)
  %36 = getelementptr inbounds i8, ptr %34, i64 %.sroa.speculated5.i
  %37 = sub i64 %35, %.sroa.speculated5.i
  %38 = getelementptr inbounds nuw i8, ptr %11, i64 32
  store i8 5, ptr %38, align 8
  %39 = getelementptr inbounds nuw i8, ptr %11, i64 33
  store i8 1, ptr %39, align 1
  store ptr %36, ptr %11, align 8
  %40 = getelementptr inbounds nuw i8, ptr %11, i64 8
  store i64 %37, ptr %40, align 8
  call void @_ZN5clang12MacroBuilder11defineMacroERKN4llvm5TwineES4_(ptr noundef nonnull align 8 dereferenceable(8) %2, ptr noundef nonnull align 8 dereferenceable(34) %10, ptr noundef nonnull align 8 dereferenceable(34) %11)
  %41 = getelementptr inbounds nuw i8, ptr %12, i64 32
  %42 = getelementptr inbounds nuw i8, ptr %12, i64 33
  store i8 1, ptr %42, align 1
  store ptr @.str.322, ptr %12, align 8
  store i8 3, ptr %41, align 8
  %43 = getelementptr inbounds nuw i8, ptr %13, i64 32
  %44 = getelementptr inbounds nuw i8, ptr %13, i64 33
  store i8 1, ptr %44, align 1
  store ptr @.str.323, ptr %13, align 8
  store i8 3, ptr %43, align 8
  call void @_ZN5clang12MacroBuilder11defineMacroERKN4llvm5TwineES4_(ptr noundef nonnull align 8 dereferenceable(8) %2, ptr noundef nonnull align 8 dereferenceable(34) %12, ptr noundef nonnull align 8 dereferenceable(34) %13)
  ret void
}